#include <math.h>
#include <stdio.h>
#include <stdlib.h>
#include <string.h>

void main()
{
	char a[100],*p;
	int m,n,i,j;
	gets(a);
	m=strlen(a);
	p=a;
	j=m;
	for(i=m-1;i>-1;i--)
		if(*(p+i)==' ')
		{
			printf("%s",p+i+1);
			printf(" ");
			*(p+i)='\0';
			j=i;
		}
		for(i=0;i<j;i++)
			printf("%c",*(p+i));
}